target datalayout = "e-m:e-p270:32:32-p271:32:32-p272:64:64-i64:64-i128:128-f80:128-n8:16:32:64-S128"
target triple = "x86_64-pc-linux-gnu"

%struct.PyVarObject = type { %struct._object, i64 }
%struct._object = type { %union.anon, ptr }
%union.anon = type { i64 }
%struct.PyTupleObject = type { %struct.PyVarObject, [1 x ptr] }
%struct.PyDictObject = type { %struct._object, i64, i64, ptr, ptr }
%struct.anon = type { i32, i32 }

@_Py_NoneStruct = external global %struct._object, align 8
@.str.33 = private unnamed_addr constant [57 x i8] c"update() takes at most 1 positional argument (%zd given)\00", align 1
@PyExc_TypeError = external global ptr, align 8

; Function Attrs: alwaysinline nounwind uwtable
define internal i32 @_Py_IsImmortal(ptr noundef %0) #4 {
  %2 = alloca ptr, align 8
  store ptr %0, ptr %2, align 8, !tbaa !42
  %3 = load ptr, ptr %2, align 8, !tbaa !42
  %4 = getelementptr inbounds nuw %struct._object, ptr %3, i32 0, i32 0
  %5 = getelementptr inbounds nuw %struct.anon, ptr %4, i32 0, i32 0
  %6 = load i32, ptr %5, align 8, !tbaa !74
  %7 = icmp slt i32 %6, 0
  %8 = zext i1 %7 to i32
  ret i32 %8
}

; Function Attrs: inlinehint nounwind uwtable
define internal i64 @Py_SIZE(ptr noundef %0) #3 {
  %2 = alloca ptr, align 8
  store ptr %0, ptr %2, align 8, !tbaa !42
  %3 = load ptr, ptr %2, align 8, !tbaa !42
  %4 = getelementptr inbounds nuw %struct.PyVarObject, ptr %3, i32 0, i32 1
  %5 = load i64, ptr %4, align 8, !tbaa !159
  ret i64 %5
}

; Function Attrs: inlinehint nounwind uwtable
define internal i64 @PyDict_GET_SIZE(ptr noundef %0) #3 {
  %2 = alloca ptr, align 8
  %3 = alloca ptr, align 8
  store ptr %0, ptr %2, align 8, !tbaa !42
  call void @llvm.lifetime.start.p0(i64 8, ptr %3) #7
  %4 = load ptr, ptr %2, align 8, !tbaa !42
  store ptr %4, ptr %3, align 8, !tbaa !44
  %5 = load ptr, ptr %3, align 8, !tbaa !44
  %6 = getelementptr inbounds nuw %struct.PyDictObject, ptr %5, i32 0, i32 1
  %7 = load i64, ptr %6, align 8, !tbaa !75
  call void @llvm.lifetime.end.p0(i64 8, ptr %3) #7
  ret i64 %7
}

; Function Attrs: alwaysinline nounwind uwtable
define internal void @Py_DECREF(ptr noundef %0) #4 {
  %2 = alloca ptr, align 8
  store ptr %0, ptr %2, align 8, !tbaa !42
  %3 = load ptr, ptr %2, align 8, !tbaa !42
  %4 = call i32 @_Py_IsImmortal(ptr noundef %3)
  %5 = icmp ne i32 %4, 0
  br i1 %5, label %6, label %7

6:                                                ; preds = %1
  br label %16

7:                                                ; preds = %1
  %8 = load ptr, ptr %2, align 8, !tbaa !42
  %9 = getelementptr inbounds nuw %struct._object, ptr %8, i32 0, i32 0
  %10 = getelementptr inbounds nuw %struct.anon, ptr %9, i32 0, i32 0
  %11 = load i32, ptr %10, align 8, !tbaa !74
  %12 = add i32 %11, -1
  store i32 %12, ptr %10, align 8, !tbaa !74
  %13 = icmp eq i32 %12, 0
  br i1 %13, label %14, label %16

14:                                               ; preds = %7
  %15 = load ptr, ptr %2, align 8, !tbaa !42
  call void @_Py_Dealloc(ptr noundef %15)
  br label %16

16:                                               ; preds = %6, %14, %7
  ret void
}

; Function Attrs: alwaysinline nounwind uwtable
define internal void @Py_INCREF(ptr noundef %0) #4 {
  %2 = alloca ptr, align 8
  %3 = alloca i32, align 4
  %4 = alloca i32, align 4
  store ptr %0, ptr %2, align 8, !tbaa !42
  call void @llvm.lifetime.start.p0(i64 4, ptr %3) #7
  %5 = load ptr, ptr %2, align 8, !tbaa !42
  %6 = getelementptr inbounds nuw %struct._object, ptr %5, i32 0, i32 0
  %7 = getelementptr inbounds nuw %struct.anon, ptr %6, i32 0, i32 0
  %8 = load i32, ptr %7, align 8, !tbaa !74
  store i32 %8, ptr %3, align 4, !tbaa !43
  %9 = load i32, ptr %3, align 4, !tbaa !43
  %10 = icmp slt i32 %9, 0
  br i1 %10, label %11, label %12

11:                                               ; preds = %1
  store i32 1, ptr %4, align 4
  br label %18

12:                                               ; preds = %1
  %13 = load i32, ptr %3, align 4, !tbaa !43
  %14 = add i32 %13, 1
  %15 = load ptr, ptr %2, align 8, !tbaa !42
  %16 = getelementptr inbounds nuw %struct._object, ptr %15, i32 0, i32 0
  %17 = getelementptr inbounds nuw %struct.anon, ptr %16, i32 0, i32 0
  store i32 %14, ptr %17, align 8, !tbaa !74
  store i32 0, ptr %4, align 4
  br label %18

18:                                               ; preds = %12, %11
  call void @llvm.lifetime.end.p0(i64 4, ptr %3) #7
  %19 = load i32, ptr %4, align 4
  switch i32 %19, label %21 [
    i32 0, label %20
    i32 1, label %20
  ]

20:                                               ; preds = %18, %18
  ret void

21:                                               ; preds = %18
  unreachable
}

; Function Attrs: inlinehint nounwind uwtable
define internal i64 @PyTuple_GET_SIZE(ptr noundef %0) #3 {
  %2 = alloca ptr, align 8
  %3 = alloca ptr, align 8
  store ptr %0, ptr %2, align 8, !tbaa !42
  call void @llvm.lifetime.start.p0(i64 8, ptr %3) #7
  %4 = load ptr, ptr %2, align 8, !tbaa !42
  store ptr %4, ptr %3, align 8, !tbaa !44
  %5 = load ptr, ptr %3, align 8, !tbaa !44
  %6 = call i64 @Py_SIZE(ptr noundef %5)
  call void @llvm.lifetime.end.p0(i64 8, ptr %3) #7
  ret i64 %6
}

; Function Attrs: nounwind uwtable
define internal ptr @mutablemapping_update(ptr noundef %0, ptr noundef %1, ptr noundef %2) #0 {
  %4 = alloca ptr, align 8
  %5 = alloca ptr, align 8
  %6 = alloca ptr, align 8
  %7 = alloca ptr, align 8
  %8 = alloca i32, align 4
  %9 = alloca i64, align 8
  %10 = alloca ptr, align 8
  %11 = alloca i32, align 4
  %12 = alloca ptr, align 8
  %13 = alloca ptr, align 8
  store ptr %0, ptr %5, align 8, !tbaa !42
  store ptr %1, ptr %6, align 8, !tbaa !42
  store ptr %2, ptr %7, align 8, !tbaa !42
  call void @llvm.lifetime.start.p0(i64 4, ptr %8) #7
  call void @llvm.lifetime.start.p0(i64 8, ptr %9) #7
  %14 = load ptr, ptr %6, align 8, !tbaa !42
  %15 = icmp ne ptr %14, null
  br i1 %15, label %16, label %19

16:                                               ; preds = %3
  %17 = load ptr, ptr %6, align 8, !tbaa !42
  %18 = call i64 @PyTuple_GET_SIZE(ptr noundef %17)
  br label %20

19:                                               ; preds = %3
  br label %20

20:                                               ; preds = %19, %16
  %21 = phi i64 [ %18, %16 ], [ 0, %19 ]
  store i64 %21, ptr %9, align 8, !tbaa !55
  %22 = load i64, ptr %9, align 8, !tbaa !55
  %23 = icmp sgt i64 %22, 1
  br i1 %23, label %24, label %29

24:                                               ; preds = %20
  call void @llvm.lifetime.start.p0(i64 8, ptr %10) #7
  store ptr @.str.33, ptr %10, align 8, !tbaa !56
  %25 = load ptr, ptr @PyExc_TypeError, align 8, !tbaa !42
  %26 = load ptr, ptr %10, align 8, !tbaa !56
  %27 = load i64, ptr %9, align 8, !tbaa !55
  %28 = call ptr (ptr, ptr, ...) @PyErr_Format(ptr noundef %25, ptr noundef %26, i64 noundef %27)
  store ptr null, ptr %4, align 8
  store i32 1, ptr %11, align 4
  call void @llvm.lifetime.end.p0(i64 8, ptr %10) #7
  br label %75

29:                                               ; preds = %20
  %30 = load i64, ptr %9, align 8, !tbaa !55
  %31 = icmp ne i64 %30, 0
  br i1 %31, label %32, label %49

32:                                               ; preds = %29
  call void @llvm.lifetime.start.p0(i64 8, ptr %12) #7
  %33 = load ptr, ptr %6, align 8, !tbaa !42
  %34 = getelementptr inbounds nuw %struct.PyTupleObject, ptr %33, i32 0, i32 1
  %35 = getelementptr [1 x ptr], ptr %34, i64 0, i64 0
  %36 = load ptr, ptr %35, align 8, !tbaa !42
  store ptr %36, ptr %12, align 8, !tbaa !42
  %37 = load ptr, ptr %12, align 8, !tbaa !42
  call void @Py_INCREF(ptr noundef %37)
  %38 = load ptr, ptr %5, align 8, !tbaa !42
  %39 = load ptr, ptr %12, align 8, !tbaa !42
  %40 = call i32 @mutablemapping_update_arg(ptr noundef %38, ptr noundef %39)
  store i32 %40, ptr %8, align 4, !tbaa !43
  %41 = load ptr, ptr %12, align 8, !tbaa !42
  call void @Py_DECREF(ptr noundef %41)
  %42 = load i32, ptr %8, align 4, !tbaa !43
  %43 = icmp slt i32 %42, 0
  br i1 %43, label %44, label %45

44:                                               ; preds = %32
  store ptr null, ptr %4, align 8
  store i32 1, ptr %11, align 4
  br label %46

45:                                               ; preds = %32
  store i32 0, ptr %11, align 4
  br label %46

46:                                               ; preds = %45, %44
  call void @llvm.lifetime.end.p0(i64 8, ptr %12) #7
  %47 = load i32, ptr %11, align 4
  switch i32 %47, label %75 [
    i32 0, label %48
  ]

48:                                               ; preds = %46
  br label %49

49:                                               ; preds = %48, %29
  %50 = load ptr, ptr %7, align 8, !tbaa !42
  %51 = icmp ne ptr %50, null
  br i1 %51, label %52, label %74

52:                                               ; preds = %49
  %53 = load ptr, ptr %7, align 8, !tbaa !42
  %54 = call i64 @PyDict_GET_SIZE(ptr noundef %53)
  %55 = icmp ne i64 %54, 0
  br i1 %55, label %56, label %74

56:                                               ; preds = %52
  call void @llvm.lifetime.start.p0(i64 8, ptr %13) #7
  %57 = load ptr, ptr %7, align 8, !tbaa !42
  %58 = call ptr @PyDict_Items(ptr noundef %57)
  store ptr %58, ptr %13, align 8, !tbaa !42
  %59 = load ptr, ptr %13, align 8, !tbaa !42
  %60 = icmp eq ptr %59, null
  br i1 %60, label %61, label %62

61:                                               ; preds = %56
  store ptr null, ptr %4, align 8
  store i32 1, ptr %11, align 4
  br label %71

62:                                               ; preds = %56
  %63 = load ptr, ptr %5, align 8, !tbaa !42
  %64 = load ptr, ptr %13, align 8, !tbaa !42
  %65 = call i32 @mutablemapping_add_pairs(ptr noundef %63, ptr noundef %64)
  store i32 %65, ptr %8, align 4, !tbaa !43
  %66 = load ptr, ptr %13, align 8, !tbaa !42
  call void @Py_DECREF(ptr noundef %66)
  %67 = load i32, ptr %8, align 4, !tbaa !43
  %68 = icmp eq i32 %67, -1
  br i1 %68, label %69, label %70

69:                                               ; preds = %62
  store ptr null, ptr %4, align 8
  store i32 1, ptr %11, align 4
  br label %71

70:                                               ; preds = %62
  store i32 0, ptr %11, align 4
  br label %71

71:                                               ; preds = %70, %69, %61
  call void @llvm.lifetime.end.p0(i64 8, ptr %13) #7
  %72 = load i32, ptr %11, align 4
  switch i32 %72, label %75 [
    i32 0, label %73
  ]

73:                                               ; preds = %71
  br label %74

74:                                               ; preds = %73, %52, %49
  store ptr @_Py_NoneStruct, ptr %4, align 8
  store i32 1, ptr %11, align 4
  br label %75

75:                                               ; preds = %74, %71, %46, %24
  call void @llvm.lifetime.end.p0(i64 8, ptr %9) #7
  call void @llvm.lifetime.end.p0(i64 4, ptr %8) #7
  %76 = load ptr, ptr %4, align 8
  ret ptr %76
}