; Function Attrs: nounwind uwtable
define internal noundef ptr @mutablemapping_update(ptr noundef %0, ptr noundef readonly %1, ptr noundef %2) #0 {
  %.not = icmp eq ptr %1, null
  br i1 %.not, label %.thread36, label %4

4:                                                ; preds = %3
  %5 = getelementptr i8, ptr %1, i64 16
  %.val = load i64, ptr %5, align 8, !tbaa !146
  %6 = icmp sgt i64 %.val, 1
  br i1 %6, label %7, label %10

7:                                                ; preds = %4
  %8 = load ptr, ptr @PyExc_TypeError, align 8, !tbaa !53
  %9 = tail call ptr (ptr, ptr, ...) @PyErr_Format(ptr noundef %8, ptr noundef nonnull @.str.33, i64 noundef %.val) #8
  br label %.critedge

10:                                               ; preds = %4
  %.not29 = icmp eq i64 %.val, 0
  br i1 %.not29, label %.thread36, label %11

11:                                               ; preds = %10
  %12 = getelementptr inbounds nuw i8, ptr %1, i64 24
  %13 = load ptr, ptr %12, align 8, !tbaa !53
  %14 = load i32, ptr %13, align 8, !tbaa !38
  %15 = icmp slt i32 %14, 0
  br i1 %15, label %Py_INCREF.exit, label %16

16:                                               ; preds = %11
  %17 = add nuw i32 %14, 1
  store i32 %17, ptr %13, align 8, !tbaa !38
  br label %Py_INCREF.exit

Py_INCREF.exit:                                   ; preds = %11, %16
  %18 = tail call fastcc i32 @mutablemapping_update_arg(ptr noundef %0, ptr noundef nonnull %13)
  %19 = load i32, ptr %13, align 8, !tbaa !38
  %.not.i32 = icmp sgt i32 %19, -1
  br i1 %.not.i32, label %20, label %Py_DECREF.exit33

20:                                               ; preds = %Py_INCREF.exit
  %21 = add nsw i32 %19, -1
  store i32 %21, ptr %13, align 8, !tbaa !38
  %22 = icmp eq i32 %21, 0
  br i1 %22, label %23, label %Py_DECREF.exit33

23:                                               ; preds = %20
  tail call void @_Py_Dealloc(ptr noundef nonnull %13) #8
  br label %Py_DECREF.exit33

Py_DECREF.exit33:                                 ; preds = %Py_INCREF.exit, %20, %23
  %24 = icmp sgt i32 %18, -1
  br i1 %24, label %.thread36, label %.critedge

.thread36:                                        ; preds = %3, %Py_DECREF.exit33, %10
  %.not30 = icmp eq ptr %2, null
  br i1 %.not30, label %37, label %25

25:                                               ; preds = %.thread36
  %26 = getelementptr i8, ptr %2, i64 16
  %.val35 = load i64, ptr %26, align 8, !tbaa !49
  %.not31 = icmp eq i64 %.val35, 0
  br i1 %.not31, label %37, label %27

27:                                               ; preds = %25
  %28 = tail call ptr @PyDict_Items(ptr noundef nonnull %2) #8
  %29 = icmp eq ptr %28, null
  br i1 %29, label %.critedge, label %30

30:                                               ; preds = %27
  %31 = tail call fastcc i32 @mutablemapping_add_pairs(ptr noundef %0, ptr noundef nonnull %28)
  %32 = load i32, ptr %28, align 8, !tbaa !38
  %.not.i = icmp sgt i32 %32, -1
  br i1 %.not.i, label %33, label %Py_DECREF.exit

33:                                               ; preds = %30
  %34 = add nsw i32 %32, -1
  store i32 %34, ptr %28, align 8, !tbaa !38
  %35 = icmp eq i32 %34, 0
  br i1 %35, label %36, label %Py_DECREF.exit

36:                                               ; preds = %33
  tail call void @_Py_Dealloc(ptr noundef nonnull %28) #8
  br label %Py_DECREF.exit

Py_DECREF.exit:                                   ; preds = %30, %33, %36
  %.not38 = icmp eq i32 %31, -1
  br i1 %.not38, label %.critedge, label %37

37:                                               ; preds = %Py_DECREF.exit, %25, %.thread36
  br label %.critedge

.critedge:                                        ; preds = %27, %Py_DECREF.exit33, %Py_DECREF.exit, %37, %7
  %.0 = phi ptr [ null, %7 ], [ @_Py_NoneStruct, %37 ], [ null, %Py_DECREF.exit ], [ null, %Py_DECREF.exit33 ], [ null, %27 ]
  ret ptr %.0
}